target datalayout = "e-m:e-p270:32:32-p271:32:32-p272:64:64-i64:64-i128:128-f80:128-n8:16:32:64-S128"
target triple = "x86_64-unknown-linux-gnu"

%"class.icu_75::UVector" = type { %"class.icu_75::UObject", i32, i32, ptr, ptr, ptr }
%"class.icu_75::UObject" = type { ptr }

@_ZTVN6icu_757UVectorE = unnamed_addr constant { [5 x ptr] } { [5 x ptr] [ptr null, ptr @_ZTIN6icu_757UVectorE, ptr @_ZN6icu_757UVectorD1Ev, ptr @_ZN6icu_757UVectorD0Ev, ptr @_ZNK6icu_757UVector17getDynamicClassIDEv] }, align 8
@_ZTVN6icu_757UObjectE = external unnamed_addr constant { [5 x ptr] }, align 8

; Function Attrs: mustprogress nounwind uwtable
define internal noundef signext i8 @_ZL9U_FAILURE10UErrorCode(i32 noundef %code) #0 {
entry:
  %code.addr = alloca i32, align 4
  store i32 %code, ptr %code.addr, align 4
  %0 = load i32, ptr %code.addr, align 4
  %cmp = icmp sgt i32 %0, 0
  %conv = zext i1 %cmp to i8
  ret i8 %conv
}

; Function Attrs: mustprogress nounwind uwtable
define linkonce_odr void @_ZN6icu_757UObjectC2Ev(ptr noundef nonnull align 8 dereferenceable(8) %this) unnamed_addr #0 comdat align 2 {
entry:
  %this.addr = alloca ptr, align 8
  store ptr %this, ptr %this.addr, align 8
  %this1 = load ptr, ptr %this.addr, align 8
  store ptr getelementptr inbounds ({ [5 x ptr] }, ptr @_ZTVN6icu_757UObjectE, i32 0, i32 0, i32 2), ptr %this1, align 8
  ret void
}

; Function Attrs: mustprogress uwtable
define void @_ZN6icu_757UVectorC2EPFvPvEPFa8UElementS4_EiR10UErrorCode(ptr noundef nonnull align 8 dereferenceable(40) %this, ptr noundef %d, ptr noundef %c, i32 noundef %initialCapacity, ptr noundef nonnull align 4 dereferenceable(4) %status) unnamed_addr #1 align 2 personality ptr @__gxx_personality_v0 {
entry:
  %this.addr = alloca ptr, align 8
  %d.addr = alloca ptr, align 8
  %c.addr = alloca ptr, align 8
  %initialCapacity.addr = alloca i32, align 4
  %status.addr = alloca ptr, align 8
  %exn.slot = alloca ptr, align 8
  %ehselector.slot = alloca i32, align 4
  store ptr %this, ptr %this.addr, align 8
  store ptr %d, ptr %d.addr, align 8
  store ptr %c, ptr %c.addr, align 8
  store i32 %initialCapacity, ptr %initialCapacity.addr, align 4
  store ptr %status, ptr %status.addr, align 8
  %this1 = load ptr, ptr %this.addr, align 8
  call void @_ZN6icu_757UObjectC2Ev(ptr noundef nonnull align 8 dereferenceable(8) %this1) #9
  store ptr getelementptr inbounds ({ [5 x ptr] }, ptr @_ZTVN6icu_757UVectorE, i32 0, i32 0, i32 2), ptr %this1, align 8
  %count = getelementptr inbounds %"class.icu_75::UVector", ptr %this1, i32 0, i32 1
  store i32 0, ptr %count, align 8
  %capacity = getelementptr inbounds %"class.icu_75::UVector", ptr %this1, i32 0, i32 2
  store i32 0, ptr %capacity, align 4
  %elements = getelementptr inbounds %"class.icu_75::UVector", ptr %this1, i32 0, i32 3
  store ptr null, ptr %elements, align 8
  %deleter = getelementptr inbounds %"class.icu_75::UVector", ptr %this1, i32 0, i32 4
  %0 = load ptr, ptr %d.addr, align 8
  store ptr %0, ptr %deleter, align 8
  %comparer = getelementptr inbounds %"class.icu_75::UVector", ptr %this1, i32 0, i32 5
  %1 = load ptr, ptr %c.addr, align 8
  store ptr %1, ptr %comparer, align 8
  %2 = load ptr, ptr %status.addr, align 8
  %3 = load i32, ptr %2, align 4
  %call = invoke noundef signext i8 @_ZL9U_FAILURE10UErrorCode(i32 noundef %3)
          to label %invoke.cont unwind label %lpad

invoke.cont:                                      ; preds = %entry
  %tobool = icmp ne i8 %call, 0
  br i1 %tobool, label %if.then, label %if.end

if.then:                                          ; preds = %invoke.cont
  br label %if.end12

lpad:                                             ; preds = %if.end4, %entry
  %4 = landingpad { ptr, i32 }
          cleanup
  %5 = extractvalue { ptr, i32 } %4, 0
  store ptr %5, ptr %exn.slot, align 8
  %6 = extractvalue { ptr, i32 } %4, 1
  store i32 %6, ptr %ehselector.slot, align 4
  call void @_ZN6icu_757UObjectD2Ev(ptr noundef nonnull align 8 dereferenceable(8) %this1) #9
  br label %eh.resume

if.end:                                           ; preds = %invoke.cont
  %7 = load i32, ptr %initialCapacity.addr, align 4
  %cmp = icmp slt i32 %7, 1
  br i1 %cmp, label %if.then3, label %lor.lhs.false

lor.lhs.false:                                    ; preds = %if.end
  %8 = load i32, ptr %initialCapacity.addr, align 4
  %cmp2 = icmp sgt i32 %8, 268435455
  br i1 %cmp2, label %if.then3, label %if.end4

if.then3:                                         ; preds = %lor.lhs.false, %if.end
  store i32 8, ptr %initialCapacity.addr, align 4
  br label %if.end4

if.end4:                                          ; preds = %if.then3, %lor.lhs.false
  %9 = load i32, ptr %initialCapacity.addr, align 4
  %conv = sext i32 %9 to i64
  %mul = mul i64 8, %conv
  %call6 = invoke noalias ptr @uprv_malloc_75(i64 noundef %mul) #10
          to label %invoke.cont5 unwind label %lpad

invoke.cont5:                                     ; preds = %if.end4
  %elements7 = getelementptr inbounds %"class.icu_75::UVector", ptr %this1, i32 0, i32 3
  store ptr %call6, ptr %elements7, align 8
  %elements8 = getelementptr inbounds %"class.icu_75::UVector", ptr %this1, i32 0, i32 3
  %10 = load ptr, ptr %elements8, align 8
  %cmp9 = icmp eq ptr %10, null
  br i1 %cmp9, label %if.then10, label %if.else

if.then10:                                        ; preds = %invoke.cont5
  %11 = load ptr, ptr %status.addr, align 8
  store i32 7, ptr %11, align 4
  br label %if.end12

if.else:                                          ; preds = %invoke.cont5
  %12 = load i32, ptr %initialCapacity.addr, align 4
  %capacity11 = getelementptr inbounds %"class.icu_75::UVector", ptr %this1, i32 0, i32 2
  store i32 %12, ptr %capacity11, align 4
  br label %if.end12

if.end12:                                         ; preds = %if.else, %if.then10, %if.then
  ret void

eh.resume:                                        ; preds = %lpad
  %exn = load ptr, ptr %exn.slot, align 8
  %sel = load i32, ptr %ehselector.slot, align 4
  %lpad.val = insertvalue { ptr, i32 } poison, ptr %exn, 0
  %lpad.val13 = insertvalue { ptr, i32 } %lpad.val, i32 %sel, 1
  resume { ptr, i32 } %lpad.val13
}

; Function Attrs: mustprogress uwtable
define void @_ZN6icu_757UVectorC2EPFvPvEPFa8UElementS4_ER10UErrorCode(ptr noundef nonnull align 8 dereferenceable(40) %this, ptr noundef %d, ptr noundef %c, ptr noundef nonnull align 4 dereferenceable(4) %status) unnamed_addr #1 align 2 {
entry:
  %this.addr = alloca ptr, align 8
  %d.addr = alloca ptr, align 8
  %c.addr = alloca ptr, align 8
  %status.addr = alloca ptr, align 8
  store ptr %this, ptr %this.addr, align 8
  store ptr %d, ptr %d.addr, align 8
  store ptr %c, ptr %c.addr, align 8
  store ptr %status, ptr %status.addr, align 8
  %this1 = load ptr, ptr %this.addr, align 8
  %0 = load ptr, ptr %d.addr, align 8
  %1 = load ptr, ptr %c.addr, align 8
  %2 = load ptr, ptr %status.addr, align 8
  call void @_ZN6icu_757UVectorC2EPFvPvEPFa8UElementS4_EiR10UErrorCode(ptr noundef nonnull align 8 dereferenceable(40) %this1, ptr noundef %0, ptr noundef %1, i32 noundef 8, ptr noundef nonnull align 4 dereferenceable(4) %2)
  ret void
}