; Function Attrs: mustprogress uwtable
define void @_ZN6icu_757UVectorC2EPFvPvEPFa8UElementS4_ER10UErrorCode(ptr noundef nonnull align 8 dereferenceable(40) %this, ptr noundef %d, ptr noundef %c, ptr nocapture noundef nonnull align 4 dereferenceable(4) %status) unnamed_addr #1 align 2 personality ptr @__gxx_personality_v0 {
entry:
  store ptr getelementptr inbounds ({ [5 x ptr] }, ptr @_ZTVN6icu_757UVectorE, i64 0, i32 0, i64 2), ptr %this, align 8
  %count.i = getelementptr inbounds i8, ptr %this, i64 8
  %capacity.i = getelementptr inbounds i8, ptr %this, i64 12
  %elements.i = getelementptr inbounds i8, ptr %this, i64 16
  %deleter.i = getelementptr inbounds i8, ptr %this, i64 24
  tail call void @llvm.memset.p0.i64(ptr noundef nonnull align 8 dereferenceable(16) %count.i, i8 0, i64 16, i1 false)
  store ptr %d, ptr %deleter.i, align 8
  %comparer.i = getelementptr inbounds i8, ptr %this, i64 32
  store ptr %c, ptr %comparer.i, align 8
  %0 = load i32, ptr %status, align 4
  %cmp.i.i = icmp slt i32 %0, 1
  br i1 %cmp.i.i, label %if.end.i, label %_ZN6icu_757UVectorC2EPFvPvEPFa8UElementS4_EiR10UErrorCode.exit

lpad.i:                                           ; preds = %if.end.i
  %1 = landingpad { ptr, i32 }
          cleanup
  tail call void @_ZN6icu_757UObjectD2Ev(ptr noundef nonnull align 8 dereferenceable(8) %this) #15
  resume { ptr, i32 } %1

if.end.i:                                         ; preds = %entry
  %call6.i = invoke noalias dereferenceable_or_null(64) ptr @uprv_malloc_75(i64 noundef 64) #16
          to label %invoke.cont5.i unwind label %lpad.i

invoke.cont5.i:                                   ; preds = %if.end.i
  store ptr %call6.i, ptr %elements.i, align 8
  %cmp9.i = icmp eq ptr %call6.i, null
  br i1 %cmp9.i, label %if.then10.i, label %if.else.i

if.then10.i:                                      ; preds = %invoke.cont5.i
  store i32 7, ptr %status, align 4
  br label %_ZN6icu_757UVectorC2EPFvPvEPFa8UElementS4_EiR10UErrorCode.exit

if.else.i:                                        ; preds = %invoke.cont5.i
  store i32 8, ptr %capacity.i, align 4
  br label %_ZN6icu_757UVectorC2EPFvPvEPFa8UElementS4_EiR10UErrorCode.exit

_ZN6icu_757UVectorC2EPFvPvEPFa8UElementS4_EiR10UErrorCode.exit: ; preds = %entry, %if.then10.i, %if.else.i
  ret void
}